target datalayout = "e-m:e-p270:32:32-p271:32:32-p272:64:64-i64:64-i128:128-f80:128-n8:16:32:64-S128"
target triple = "x86_64-pc-linux-gnu"

%struct.hashmanuf = type { i8, [3 x i8], [9 x i8], [64 x i8], [64 x i8] }

@addr_resolv_scope = internal global ptr null, align 8
@manuf_hashtable = internal global ptr null, align 8

; Function Attrs: alwaysinline nounwind
define internal ptr @memcpy.inline(ptr noalias %0, ptr noalias %1, i64 %2) #8 {
  %4 = alloca ptr, align 8
  %5 = alloca ptr, align 8
  %6 = alloca i64, align 8
  store ptr %0, ptr %4, align 8
  store ptr %1, ptr %5, align 8
  store i64 %2, ptr %6, align 8
  %7 = load ptr, ptr %4, align 8
  %8 = load ptr, ptr %5, align 8
  %9 = load i64, ptr %6, align 8
  %10 = load ptr, ptr %4, align 8
  %11 = call i64 @llvm.objectsize.i64.p0(ptr %10, i1 false, i1 true, i1 true)
  %12 = call ptr @__memcpy_chk(ptr noundef %7, ptr noundef %8, i64 noundef %9, i64 noundef %11) #16
  ret ptr %12
}

; Function Attrs: null_pointer_is_valid sspstrong uwtable
define internal ptr @manuf_hash_new_entry(ptr noundef %0, ptr noundef %1, ptr noundef %2) #3 {
  %4 = alloca ptr, align 8
  %5 = alloca ptr, align 8
  %6 = alloca ptr, align 8
  %7 = alloca i32, align 4
  %8 = alloca ptr, align 8
  %9 = alloca ptr, align 8
  store ptr %0, ptr %4, align 8
  store ptr %1, ptr %5, align 8
  store ptr %2, ptr %6, align 8
  call void @llvm.lifetime.start.p0(i64 4, ptr %7) #16
  call void @llvm.lifetime.start.p0(i64 8, ptr %8) #16
  call void @llvm.lifetime.start.p0(i64 8, ptr %9) #16
  %10 = load ptr, ptr %4, align 8
  %11 = getelementptr i8, ptr %10, i64 0
  %12 = load i8, ptr %11, align 1
  %13 = zext i8 %12 to i32
  %14 = shl i32 %13, 16
  %15 = load ptr, ptr %4, align 8
  %16 = getelementptr i8, ptr %15, i64 1
  %17 = load i8, ptr %16, align 1
  %18 = zext i8 %17 to i32
  %19 = shl i32 %18, 8
  %20 = add i32 %14, %19
  %21 = load ptr, ptr %4, align 8
  %22 = getelementptr i8, ptr %21, i64 2
  %23 = load i8, ptr %22, align 1
  %24 = zext i8 %23 to i32
  %25 = add i32 %20, %24
  store i32 %25, ptr %7, align 4
  %26 = load ptr, ptr @addr_resolv_scope, align 8
  %27 = call noalias ptr @wmem_alloc(ptr noundef %26, i64 noundef 141) #19
  store ptr %27, ptr %8, align 8
  %28 = load ptr, ptr %8, align 8
  %29 = getelementptr inbounds nuw %struct.hashmanuf, ptr %28, i32 0, i32 1
  %30 = getelementptr inbounds [3 x i8], ptr %29, i64 0, i64 0
  %31 = load ptr, ptr %4, align 8
  %32 = call ptr @memcpy.inline(ptr noundef %30, ptr noundef %31, i64 noundef 3) #16
  %33 = load ptr, ptr %5, align 8
  %34 = icmp ne ptr %33, null
  br i1 %34, label %35, label %58

35:                                               ; preds = %3
  %36 = load ptr, ptr %8, align 8
  %37 = getelementptr inbounds nuw %struct.hashmanuf, ptr %36, i32 0, i32 3
  %38 = getelementptr inbounds [64 x i8], ptr %37, i64 0, i64 0
  %39 = load ptr, ptr %5, align 8
  %40 = call i64 @g_strlcpy(ptr noundef %38, ptr noundef %39, i64 noundef 64)
  %41 = load ptr, ptr %8, align 8
  %42 = getelementptr inbounds nuw %struct.hashmanuf, ptr %41, i32 0, i32 0
  store i8 2, ptr %42, align 1
  %43 = load ptr, ptr %6, align 8
  %44 = icmp ne ptr %43, null
  br i1 %44, label %45, label %51

45:                                               ; preds = %35
  %46 = load ptr, ptr %8, align 8
  %47 = getelementptr inbounds nuw %struct.hashmanuf, ptr %46, i32 0, i32 4
  %48 = getelementptr inbounds [64 x i8], ptr %47, i64 0, i64 0
  %49 = load ptr, ptr %6, align 8
  %50 = call i64 @g_strlcpy(ptr noundef %48, ptr noundef %49, i64 noundef 64)
  br label %57

51:                                               ; preds = %35
  %52 = load ptr, ptr %8, align 8
  %53 = getelementptr inbounds nuw %struct.hashmanuf, ptr %52, i32 0, i32 4
  %54 = getelementptr inbounds [64 x i8], ptr %53, i64 0, i64 0
  %55 = load ptr, ptr %5, align 8
  %56 = call i64 @g_strlcpy(ptr noundef %54, ptr noundef %55, i64 noundef 64)
  br label %57

57:                                               ; preds = %51, %45
  br label %67

58:                                               ; preds = %3
  %59 = load ptr, ptr %8, align 8
  %60 = getelementptr inbounds nuw %struct.hashmanuf, ptr %59, i32 0, i32 0
  store i8 0, ptr %60, align 1
  %61 = load ptr, ptr %8, align 8
  %62 = getelementptr inbounds nuw %struct.hashmanuf, ptr %61, i32 0, i32 3
  %63 = getelementptr [64 x i8], ptr %62, i64 0, i64 0
  store i8 0, ptr %63, align 1
  %64 = load ptr, ptr %8, align 8
  %65 = getelementptr inbounds nuw %struct.hashmanuf, ptr %64, i32 0, i32 4
  %66 = getelementptr [64 x i8], ptr %65, i64 0, i64 0
  store i8 0, ptr %66, align 1
  br label %67

67:                                               ; preds = %58, %57
  %68 = load ptr, ptr %8, align 8
  %69 = getelementptr inbounds nuw %struct.hashmanuf, ptr %68, i32 0, i32 2
  %70 = getelementptr inbounds [9 x i8], ptr %69, i64 0, i64 0
  %71 = load ptr, ptr %4, align 8
  %72 = call ptr @bytes_to_hexstr_punct(ptr noundef %70, ptr noundef %71, i64 noundef 3, i8 noundef signext 58)
  store ptr %72, ptr %9, align 8
  %73 = load ptr, ptr %9, align 8
  store i8 0, ptr %73, align 1
  %74 = load ptr, ptr @manuf_hashtable, align 8
  %75 = load i32, ptr %7, align 4
  %76 = zext i32 %75 to i64
  %77 = inttoptr i64 %76 to ptr
  %78 = load ptr, ptr %8, align 8
  %79 = call ptr @wmem_map_insert(ptr noundef %74, ptr noundef %77, ptr noundef %78)
  %80 = load ptr, ptr %8, align 8
  call void @llvm.lifetime.end.p0(i64 8, ptr %9) #16
  call void @llvm.lifetime.end.p0(i64 8, ptr %8) #16
  call void @llvm.lifetime.end.p0(i64 4, ptr %7) #16
  ret ptr %80
}