; Function Attrs: null_pointer_is_valid sspstrong uwtable
define internal fastcc noundef ptr @manuf_hash_new_entry(ptr noundef %0, ptr noundef %1, ptr noundef %2) unnamed_addr #3 {
  %4 = load i8, ptr %0, align 1
  %5 = getelementptr i8, ptr %0, i64 1
  %6 = load i8, ptr %5, align 1
  %7 = getelementptr i8, ptr %0, i64 2
  %8 = load i8, ptr %7, align 1
  %9 = load ptr, ptr @addr_resolv_scope, align 8
  %10 = tail call noalias dereferenceable_or_null(141) ptr @wmem_alloc(ptr noundef %9, i64 noundef 141) #26
  %11 = getelementptr inbounds nuw i8, ptr %10, i64 1
  tail call void @llvm.memcpy.p0.p0.i64(ptr noundef nonnull align 1 dereferenceable(3) %11, ptr noundef align 1 dereferenceable(3) %0, i64 noundef 3, i1 noundef false) #24
  %.not = icmp eq ptr %1, null
  br i1 %.not, label %20, label %12

12:                                               ; preds = %3
  %13 = getelementptr inbounds nuw i8, ptr %10, i64 13
  %14 = tail call i64 @g_strlcpy(ptr noundef nonnull %13, ptr noundef nonnull %1, i64 noundef 64)
  store i8 2, ptr %10, align 1
  %.not23 = icmp eq ptr %2, null
  %15 = getelementptr inbounds nuw i8, ptr %10, i64 77
  br i1 %.not23, label %18, label %16

16:                                               ; preds = %12
  %17 = tail call i64 @g_strlcpy(ptr noundef nonnull %15, ptr noundef nonnull %2, i64 noundef 64)
  br label %23

18:                                               ; preds = %12
  %19 = tail call i64 @g_strlcpy(ptr noundef nonnull %15, ptr noundef nonnull %1, i64 noundef 64)
  br label %23

20:                                               ; preds = %3
  store i8 0, ptr %10, align 1
  %21 = getelementptr inbounds nuw i8, ptr %10, i64 13
  store i8 0, ptr %21, align 1
  %22 = getelementptr inbounds nuw i8, ptr %10, i64 77
  store i8 0, ptr %22, align 1
  br label %23

23:                                               ; preds = %16, %18, %20
  %24 = zext i8 %4 to i64
  %25 = shl nuw nsw i64 %24, 16
  %26 = zext i8 %6 to i64
  %27 = shl nuw nsw i64 %26, 8
  %28 = or disjoint i64 %27, %25
  %29 = zext i8 %8 to i64
  %30 = or disjoint i64 %28, %29
  %31 = getelementptr inbounds nuw i8, ptr %10, i64 4
  %32 = tail call ptr @bytes_to_hexstr_punct(ptr noundef nonnull %31, ptr noundef %0, i64 noundef 3, i8 noundef signext 58)
  store i8 0, ptr %32, align 1
  %33 = load ptr, ptr @manuf_hashtable, align 8
  %34 = inttoptr i64 %30 to ptr
  %35 = tail call ptr @wmem_map_insert(ptr noundef %33, ptr noundef %34, ptr noundef %10)
  ret ptr %10
}